; Function Attrs: mustprogress uwtable
define noundef zeroext i1 @_ZN5draco38SequentialQuantizationAttributeDecoder35DecodeDataNeededByPortableTransformERKSt6vectorINS_9IndexTypeIjNS_20PointIndex_tag_type_EEESaIS4_EEPNS_13DecoderBufferE(ptr noundef nonnull align 8 dereferenceable(96) %0, ptr nocapture nonnull readnone align 1 %1, ptr nocapture readnone %2) unnamed_addr #3 align 2 {
  %4 = getelementptr inbounds i8, ptr %0, i64 8
  %5 = load ptr, ptr %4, align 8
  %6 = getelementptr inbounds i8, ptr %5, i64 72
  %7 = load i8, ptr %6, align 8
  %8 = icmp ugt i8 %7, 1
  br i1 %8, label %9, label %14

9:                                                ; preds = %3
  %10 = load ptr, ptr %0, align 8
  %11 = getelementptr inbounds i8, ptr %10, i64 104
  %12 = load ptr, ptr %11, align 8
  %13 = tail call noundef zeroext i1 %12(ptr noundef nonnull align 8 dereferenceable(96) %0)
  br i1 %13, label %14, label %19

14:                                               ; preds = %9, %3
  %15 = getelementptr inbounds i8, ptr %0, i64 48
  %16 = getelementptr inbounds i8, ptr %0, i64 32
  %17 = load ptr, ptr %16, align 8
  %18 = tail call noundef zeroext i1 @_ZNK5draco18AttributeTransform19TransferToAttributeEPNS_14PointAttributeE(ptr noundef nonnull align 8 dereferenceable(8) %15, ptr noundef %17)
  br label %19

19:                                               ; preds = %9, %14
  %.0 = phi i1 [ %18, %14 ], [ false, %9 ]
  ret i1 %.0
}